target datalayout = "e-m:e-p270:32:32-p271:32:32-p272:64:64-i64:64-i128:128-f80:128-n8:16:32:64-S128"
target triple = "x86_64-pc-linux-gnu"

@s_lock = internal global i32 0, align 4

; Function Attrs: inlinehint nounwind uwtable
define internal void @curl_simple_lock_unlock(ptr noundef %0) #6 {
  %2 = alloca ptr, align 8
  %3 = alloca i32, align 4
  store ptr %0, ptr %2, align 8, !tbaa !9
  %4 = load ptr, ptr %2, align 8, !tbaa !9
  store i32 0, ptr %3, align 4, !tbaa !7
  %5 = load i32, ptr %3, align 4
  store atomic i32 %5, ptr %4 release, align 4
  ret void
}

; Function Attrs: inlinehint nounwind uwtable
define internal void @curl_simple_lock_lock(ptr noundef %0) #6 {
  %2 = alloca ptr, align 8
  %3 = alloca i32, align 4
  %4 = alloca i32, align 4
  %5 = alloca i32, align 4
  store ptr %0, ptr %2, align 8, !tbaa !9
  br label %6

6:                                                ; preds = %20, %1
  %7 = load ptr, ptr %2, align 8, !tbaa !9
  store i32 1, ptr %3, align 4, !tbaa !7
  %8 = load i32, ptr %3, align 4
  %9 = atomicrmw xchg ptr %7, i32 %8 acquire, align 4
  store i32 %9, ptr %4, align 4
  %10 = load i32, ptr %4, align 4, !tbaa !7
  %11 = icmp ne i32 %10, 0
  br i1 %11, label %13, label %12

12:                                               ; preds = %6
  br label %21

13:                                               ; preds = %6
  br label %14

14:                                               ; preds = %19, %13
  %15 = load ptr, ptr %2, align 8, !tbaa !9
  %16 = load atomic i32, ptr %15 monotonic, align 4
  store i32 %16, ptr %5, align 4
  %17 = load i32, ptr %5, align 4, !tbaa !7
  %18 = icmp ne i32 %17, 0
  br i1 %18, label %19, label %20

19:                                               ; preds = %14
  call void @llvm.x86.sse2.pause()
  br label %14, !llvm.loop !11

20:                                               ; preds = %14
  br label %6

21:                                               ; preds = %12
  ret void
}

; Function Attrs: nounwind uwtable
define i32 @curl_global_trace(ptr noundef %0) #4 {
  %2 = alloca ptr, align 8
  %3 = alloca i32, align 4
  store ptr %0, ptr %2, align 8, !tbaa !17
  call void @llvm.lifetime.start.p0(i64 4, ptr %3) #10
  call void @curl_simple_lock_lock(ptr noundef @s_lock)
  %4 = load ptr, ptr %2, align 8, !tbaa !17
  %5 = call i32 @Curl_trc_opt(ptr noundef %4)
  store i32 %5, ptr %3, align 4, !tbaa !7
  call void @curl_simple_lock_unlock(ptr noundef @s_lock)
  %6 = load i32, ptr %3, align 4, !tbaa !7
  call void @llvm.lifetime.end.p0(i64 4, ptr %3) #10
  ret i32 %6
}