; Function Attrs: nounwind uwtable
define i32 @curl_global_trace(ptr noundef %0) local_unnamed_addr #5 {
  %2 = atomicrmw xchg ptr @s_lock, i32 1 acquire, align 4
  %.not2.i = icmp eq i32 %2, 0
  br i1 %.not2.i, label %curl_simple_lock_lock.exit, label %.preheader.i

.loopexit.i:                                      ; preds = %.lr.ph.i, %.preheader.i
  %3 = atomicrmw xchg ptr @s_lock, i32 1 acquire, align 4
  %.not.i = icmp eq i32 %3, 0
  br i1 %.not.i, label %curl_simple_lock_lock.exit, label %.preheader.i

.preheader.i:                                     ; preds = %1, %.loopexit.i
  %4 = load atomic i32, ptr @s_lock monotonic, align 4
  %.not41.i = icmp eq i32 %4, 0
  br i1 %.not41.i, label %.loopexit.i, label %.lr.ph.i

.lr.ph.i:                                         ; preds = %.preheader.i, %.lr.ph.i
  tail call void @llvm.x86.sse2.pause()
  %5 = load atomic i32, ptr @s_lock monotonic, align 4
  %.not4.i = icmp eq i32 %5, 0
  br i1 %.not4.i, label %.loopexit.i, label %.lr.ph.i, !llvm.loop !3

curl_simple_lock_lock.exit:                       ; preds = %.loopexit.i, %1
  %6 = tail call i32 @Curl_trc_opt(ptr noundef %0) #11
  store atomic i32 0, ptr @s_lock release, align 4
  ret i32 %6
}